; Function Attrs: nounwind uwtable
define ptr @ssl_generate_param_group(ptr noundef %0, i16 noundef zeroext %1) local_unnamed_addr #4 {
  %3 = alloca ptr, align 8
  %4 = getelementptr inbounds nuw i8, ptr %0, i64 8
  %5 = load ptr, ptr %4, align 8, !tbaa !222
  call void @llvm.lifetime.start.p0(i64 8, ptr nonnull %3) #18
  store ptr null, ptr %3, align 8, !tbaa !77
  %6 = tail call ptr @tls1_group_id_lookup(ptr noundef %5, i16 noundef zeroext %1) #18
  %7 = icmp eq ptr %6, null
  br i1 %7, label %30, label %8

8:                                                ; preds = %2
  %9 = load ptr, ptr %5, align 8, !tbaa !235
  %10 = getelementptr inbounds nuw i8, ptr %6, i64 16
  %11 = load ptr, ptr %10, align 8, !tbaa !240
  %12 = getelementptr inbounds nuw i8, ptr %5, i64 1152
  %13 = load ptr, ptr %12, align 8, !tbaa !239
  %14 = tail call ptr @EVP_PKEY_CTX_new_from_name(ptr noundef %9, ptr noundef %11, ptr noundef %13) #18
  %15 = icmp eq ptr %14, null
  br i1 %15, label %30, label %16

16:                                               ; preds = %8
  %17 = tail call i32 @EVP_PKEY_paramgen_init(ptr noundef nonnull %14) #18
  %18 = icmp slt i32 %17, 1
  br i1 %18, label %30, label %19

19:                                               ; preds = %16
  %20 = getelementptr inbounds nuw i8, ptr %6, i64 8
  %21 = load ptr, ptr %20, align 8, !tbaa !241
  %22 = tail call i32 @EVP_PKEY_CTX_set_group_name(ptr noundef nonnull %14, ptr noundef %21) #18
  %23 = icmp slt i32 %22, 1
  br i1 %23, label %24, label %25

24:                                               ; preds = %19
  tail call void @ERR_new() #18
  tail call void @ERR_set_debug(ptr noundef nonnull @.str.2, i32 noundef 4963, ptr noundef nonnull @__func__.ssl_generate_param_group) #18
  tail call void (ptr, i32, i32, ptr, ...) @ossl_statem_fatal(ptr noundef nonnull %0, i32 noundef 80, i32 noundef 524294, ptr noundef null) #18
  br label %30

25:                                               ; preds = %19
  %26 = call i32 @EVP_PKEY_paramgen(ptr noundef nonnull %14, ptr noundef nonnull %3) #18
  %27 = icmp slt i32 %26, 1
  br i1 %27, label %28, label %30

28:                                               ; preds = %25
  %29 = load ptr, ptr %3, align 8, !tbaa !77
  call void @EVP_PKEY_free(ptr noundef %29) #18
  store ptr null, ptr %3, align 8, !tbaa !77
  br label %30

30:                                               ; preds = %25, %28, %16, %8, %2, %24
  %.0 = phi ptr [ null, %2 ], [ null, %8 ], [ %14, %16 ], [ %14, %24 ], [ %14, %28 ], [ %14, %25 ]
  call void @EVP_PKEY_CTX_free(ptr noundef %.0) #18
  %31 = load ptr, ptr %3, align 8, !tbaa !77
  call void @llvm.lifetime.end.p0(i64 8, ptr nonnull %3) #18
  ret ptr %31
}